; Function Attrs: mustprogress uwtable
define void @_ZN6icu_776number4impl17blueprint_helpers20parseUnitUsageOptionERKNS_13StringSegmentERNS1_10MacroPropsER10UErrorCode(ptr noundef nonnull align 8 dereferenceable(17) %0, ptr noundef nonnull align 8 dereferenceable(472) %1, ptr noundef nonnull writeonly align 4 captures(none) dereferenceable(4) %2) local_unnamed_addr #1 personality ptr @__gxx_personality_v0 {
  %4 = alloca %"class.icu_77::CharString", align 8
  %5 = alloca i32, align 4
  %6 = alloca %"class.icu_77::UnicodeString", align 8
  %7 = alloca %"class.icu_77::ConstChar16Ptr", align 8
  %8 = alloca %"class.icu_77::UnicodeString", align 8
  call void @llvm.lifetime.start.p0(i64 64, ptr nonnull %4) #18
  call void @_ZN6icu_7715MaybeStackArrayIcLi40EEC1Ev(ptr noundef nonnull align 8 dereferenceable(60) %4)
  %9 = getelementptr inbounds nuw i8, ptr %4, i64 56
  store i32 0, ptr %9, align 8, !tbaa !111
  %10 = load ptr, ptr %4, align 8, !tbaa !3
  store i8 0, ptr %10, align 1, !tbaa !25
  call void @llvm.lifetime.start.p0(i64 4, ptr nonnull %5) #18
  store i32 0, ptr %5, align 4, !tbaa !13
  call void @llvm.lifetime.start.p0(i64 64, ptr nonnull %6) #18
  call void @llvm.lifetime.start.p0(i64 64, ptr nonnull %8) #18
  invoke void @_ZNK6icu_7713StringSegment19toTempUnicodeStringEv(ptr dead_on_unwind nonnull writable sret(%"class.icu_77::UnicodeString") align 8 %8, ptr noundef nonnull align 8 dereferenceable(17) %0)
          to label %11 unwind label %30

11:                                               ; preds = %3
  %12 = getelementptr inbounds nuw i8, ptr %8, i64 8
  %13 = load i16, ptr %12, align 8, !tbaa !25
  %14 = and i16 %13, 17
  %.not.i = icmp eq i16 %14, 0
  br i1 %.not.i, label %15, label %_ZNK6icu_7713UnicodeString9getBufferEv.exit

15:                                               ; preds = %11
  %16 = and i16 %13, 2
  %.not2.i = icmp eq i16 %16, 0
  br i1 %.not2.i, label %19, label %17

17:                                               ; preds = %15
  %18 = getelementptr inbounds nuw i8, ptr %8, i64 10
  br label %_ZNK6icu_7713UnicodeString9getBufferEv.exit

19:                                               ; preds = %15
  %20 = getelementptr inbounds nuw i8, ptr %8, i64 24
  %21 = load ptr, ptr %20, align 8, !tbaa !25
  br label %_ZNK6icu_7713UnicodeString9getBufferEv.exit

_ZNK6icu_7713UnicodeString9getBufferEv.exit:      ; preds = %11, %17, %19
  %.0.i = phi ptr [ %18, %17 ], [ %21, %19 ], [ null, %11 ]
  store ptr %.0.i, ptr %7, align 8, !tbaa !108
  %22 = invoke noundef i32 @_ZNK6icu_7713StringSegment6lengthEv(ptr noundef nonnull align 8 dereferenceable(17) %0)
          to label %23 unwind label %32

23:                                               ; preds = %_ZNK6icu_7713UnicodeString9getBufferEv.exit
  invoke void @_ZN6icu_7713UnicodeStringC1EaNS_14ConstChar16PtrEi(ptr noundef nonnull align 8 dereferenceable(64) %6, i8 noundef signext 0, ptr noundef nonnull %7, i32 noundef %22)
          to label %24 unwind label %32

24:                                               ; preds = %23
  %25 = invoke noundef nonnull align 8 dereferenceable(60) ptr @_ZN6icu_7710CharString20appendInvariantCharsERKNS_13UnicodeStringER10UErrorCode(ptr noundef nonnull align 8 dereferenceable(60) %4, ptr noundef nonnull align 8 dereferenceable(64) %6, ptr noundef nonnull align 4 dereferenceable(4) %5)
          to label %26 unwind label %34

26:                                               ; preds = %24
  call void @_ZN6icu_7713UnicodeStringD1Ev(ptr noundef nonnull align 8 dereferenceable(64) %6) #18
  %27 = load ptr, ptr %7, align 8, !tbaa !108
  call void asm sideeffect "", "rm,~{memory},~{dirflag},~{fpsr},~{flags}"(ptr %27) #18, !srcloc !15
  call void @_ZN6icu_7713UnicodeStringD1Ev(ptr noundef nonnull align 8 dereferenceable(64) %8) #18
  call void @llvm.lifetime.end.p0(i64 64, ptr nonnull %8) #18
  call void @llvm.lifetime.end.p0(i64 64, ptr nonnull %6) #18
  %28 = load i32, ptr %5, align 4, !tbaa !13
  %29 = icmp eq i32 %28, 26
  br i1 %29, label %.critedge, label %39

30:                                               ; preds = %3
  %31 = landingpad { ptr, i32 }
          cleanup
  br label %38

32:                                               ; preds = %23, %_ZNK6icu_7713UnicodeString9getBufferEv.exit
  %33 = landingpad { ptr, i32 }
          cleanup
  br label %36

34:                                               ; preds = %24
  %35 = landingpad { ptr, i32 }
          cleanup
  call void @_ZN6icu_7713UnicodeStringD1Ev(ptr noundef nonnull align 8 dereferenceable(64) %6) #18
  br label %36

36:                                               ; preds = %34, %32
  %.pn = phi { ptr, i32 } [ %35, %34 ], [ %33, %32 ]
  %37 = load ptr, ptr %7, align 8, !tbaa !108
  call void asm sideeffect "", "rm,~{memory},~{dirflag},~{fpsr},~{flags}"(ptr %37) #18, !srcloc !15
  call void @_ZN6icu_7713UnicodeStringD1Ev(ptr noundef nonnull align 8 dereferenceable(64) %8) #18
  br label %38

38:                                               ; preds = %36, %30
  %.pn.pn = phi { ptr, i32 } [ %.pn, %36 ], [ %31, %30 ]
  call void @llvm.lifetime.end.p0(i64 64, ptr nonnull %8) #18
  call void @llvm.lifetime.end.p0(i64 64, ptr nonnull %6) #18
  call void @llvm.lifetime.end.p0(i64 4, ptr nonnull %5) #18
  br label %48

39:                                               ; preds = %26
  %40 = icmp slt i32 %28, 1
  br i1 %40, label %41, label %.critedge

41:                                               ; preds = %39
  call void @llvm.lifetime.end.p0(i64 4, ptr nonnull %5) #18
  %42 = load ptr, ptr %4, align 8, !tbaa !3
  %43 = load i32, ptr %9, align 8, !tbaa !111
  %44 = getelementptr inbounds nuw i8, ptr %1, i64 192
  invoke void @_ZN6icu_776number4impl10StringProp3setENS_11StringPieceE(ptr noundef nonnull align 8 dereferenceable(16) %44, ptr %42, i32 %43)
          to label %45 unwind label %46

.critedge:                                        ; preds = %39, %26
  %storemerge = phi i32 [ 65811, %26 ], [ %28, %39 ]
  store i32 %storemerge, ptr %2, align 4, !tbaa !13
  call void @llvm.lifetime.end.p0(i64 4, ptr nonnull %5) #18
  br label %45

45:                                               ; preds = %41, %.critedge
  call void @_ZN6icu_7715MaybeStackArrayIcLi40EED1Ev(ptr noundef nonnull align 8 dereferenceable(60) %4) #18
  call void @llvm.lifetime.end.p0(i64 64, ptr nonnull %4) #18
  ret void

46:                                               ; preds = %41
  %47 = landingpad { ptr, i32 }
          cleanup
  br label %48

48:                                               ; preds = %46, %38
  %.pn16 = phi { ptr, i32 } [ %47, %46 ], [ %.pn.pn, %38 ]
  call void @_ZN6icu_7715MaybeStackArrayIcLi40EED1Ev(ptr noundef nonnull align 8 dereferenceable(60) %4) #18
  call void @llvm.lifetime.end.p0(i64 64, ptr nonnull %4) #18
  resume { ptr, i32 } %.pn16
}